; Function Attrs: mustprogress nounwind uwtable
define dso_local noundef i32 @_ZN4llvm21MultiHazardRecognizer13getHazardTypeEPNS_5SUnitEi(ptr noundef nonnull align 8 dereferenceable(64) %0, ptr noundef %1, i32 noundef %2) unnamed_addr #0 align 2 {
  %4 = getelementptr inbounds nuw i8, ptr %0, i64 16
  %5 = load ptr, ptr %4, align 8
  %6 = tail call noundef i64 @_ZNK4llvm15SmallVectorBaseIjE4sizeEv(ptr noundef nonnull align 8 dereferenceable(16) %4) #6
  %7 = getelementptr inbounds %"class.std::unique_ptr", ptr %5, i64 %6
  %.not15 = icmp eq i64 %6, 0
  br i1 %.not15, label %._crit_edge, label %.lr.ph

8:                                                ; preds = %.lr.ph
  %9 = getelementptr inbounds i8, ptr %.01216, i64 8
  %.not = icmp eq ptr %9, %7
  br i1 %.not, label %._crit_edge, label %.lr.ph

.lr.ph:                                           ; preds = %3, %8
  %.01216 = phi ptr [ %9, %8 ], [ %5, %3 ]
  %10 = load ptr, ptr %.01216, align 8
  %11 = load ptr, ptr %10, align 8
  %12 = getelementptr inbounds i8, ptr %11, i64 24
  %13 = load ptr, ptr %12, align 8
  %14 = tail call noundef i32 %13(ptr noundef nonnull align 8 dereferenceable(12) %10, ptr noundef %1, i32 noundef %2) #6
  %.not14 = icmp eq i32 %14, 0
  br i1 %.not14, label %8, label %._crit_edge

._crit_edge:                                      ; preds = %.lr.ph, %8, %3
  %.0 = phi i32 [ 0, %3 ], [ 0, %8 ], [ %14, %.lr.ph ]
  ret i32 %.0
}